target datalayout = "e-m:e-p270:32:32-p271:32:32-p272:64:64-i64:64-i128:128-f80:128-n8:16:32:64-S128"
target triple = "x86_64-pc-linux-gnu"

@G1MixedGCCountTarget = external global i64, align 8

; Function Attrs: mustprogress nounwind uwtable
define linkonce_odr hidden noundef i64 @_Z4MAX2ImET_S0_S0_(i64 noundef %0, i64 noundef %1) #1 comdat {
  %3 = alloca i64, align 8
  %4 = alloca i64, align 8
  store i64 %0, ptr %3, align 8
  store i64 %1, ptr %4, align 8
  %5 = load i64, ptr %3, align 8
  %6 = load i64, ptr %4, align 8
  %7 = icmp ugt i64 %5, %6
  br i1 %7, label %8, label %10

8:                                                ; preds = %2
  %9 = load i64, ptr %3, align 8
  br label %12

10:                                               ; preds = %2
  %11 = load i64, ptr %4, align 8
  br label %12

12:                                               ; preds = %10, %8
  %13 = phi i64 [ %9, %8 ], [ %11, %10 ]
  ret i64 %13
}

; Function Attrs: mustprogress nounwind uwtable
define hidden noundef i32 @_ZNK8G1Policy24calc_min_old_cset_lengthEj(ptr noundef nonnull align 8 dereferenceable(552) %0, i32 noundef %1) #1 align 2 {
  %3 = alloca ptr, align 8
  %4 = alloca i32, align 4
  %5 = alloca i64, align 8
  store ptr %0, ptr %3, align 8
  store i32 %1, ptr %4, align 4
  %6 = load i64, ptr @G1MixedGCCountTarget, align 8
  %7 = call noundef i64 @_Z4MAX2ImET_S0_S0_(i64 noundef %6, i64 noundef 1)
  store i64 %7, ptr %5, align 8
  %8 = load i32, ptr %4, align 4
  %9 = uitofp i32 %8 to double
  %10 = load i64, ptr %5, align 8
  %11 = uitofp i64 %10 to double
  %12 = fdiv double %9, %11
  %13 = call double @llvm.ceil.f64(double %12)
  %14 = fptoui double %13 to i32
  ret i32 %14
}