; Function Attrs: mustprogress nofree norecurse nosync nounwind willreturn memory(read, argmem: none, inaccessiblemem: none) uwtable
define hidden noundef i32 @_ZNK8G1Policy24calc_min_old_cset_lengthEj(ptr nocapture noundef nonnull readnone align 8 dereferenceable(552) %0, i32 noundef %1) local_unnamed_addr #5 align 2 {
  %3 = load i64, ptr @G1MixedGCCountTarget, align 8
  %4 = tail call noundef i64 @llvm.umax.i64(i64 %3, i64 1)
  %5 = uitofp i32 %1 to double
  %6 = uitofp i64 %4 to double
  %7 = fdiv double %5, %6
  %8 = tail call double @llvm.ceil.f64(double %7)
  %9 = fptoui double %8 to i32
  ret i32 %9
}